; Function Attrs: nofree norecurse nosync nounwind memory(read, argmem: readwrite, inaccessiblemem: none) uwtable
define i64 @HUFv06_decompress1X2(ptr noundef %0, i64 noundef %1, ptr noundef %2, i64 noundef %3) local_unnamed_addr #12 {
  %5 = alloca [256 x i8], align 16
  %6 = alloca [17 x i32], align 16
  %7 = alloca i32, align 4
  %8 = alloca i32, align 4
  %9 = alloca [4097 x i16], align 16
  call void @llvm.lifetime.start.p0(i64 8194, ptr nonnull %9) #28
  call void @llvm.memset.p0.i64(ptr noundef nonnull align 16 dereferenceable(8194) %9, i8 0, i64 8194, i1 false)
  call void @llvm.lifetime.start.p0(i64 256, ptr nonnull %5) #28
  call void @llvm.lifetime.start.p0(i64 68, ptr nonnull %6) #28
  call void @llvm.lifetime.start.p0(i64 4, ptr nonnull %7) #28
  store i32 0, ptr %7, align 4, !tbaa !3
  call void @llvm.lifetime.start.p0(i64 4, ptr nonnull %8) #28
  store i32 0, ptr %8, align 4, !tbaa !3
  %10 = getelementptr inbounds nuw i8, ptr %9, i64 2
  %11 = call fastcc i64 @HUFv06_readStats(ptr noundef %5, ptr noundef %6, ptr noundef %8, ptr noundef %7, ptr noundef %2, i64 noundef %3)
  %12 = icmp ult i64 %11, -119
  br i1 %12, label %13, label %HUFv06_readDTableX2.exit.thread

13:                                               ; preds = %4
  %14 = load i32, ptr %7, align 4, !tbaa !3
  %15 = icmp ugt i32 %14, 12
  br i1 %15, label %HUFv06_readDTableX2.exit.thread, label %16

16:                                               ; preds = %13
  %17 = trunc nuw i32 %14 to i16
  store i16 %17, ptr %9, align 16, !tbaa !10
  %.not37.i = icmp eq i32 %14, 0
  br i1 %.not37.i, label %.preheader.i, label %.lr.ph.preheader.i

.lr.ph.preheader.i:                               ; preds = %16
  %18 = add nuw nsw i32 %14, 1
  %zext = zext nneg i32 %18 to i64
  br label %.lr.ph.i

.preheader.i:                                     ; preds = %.lr.ph.i, %16
  %19 = load i32, ptr %8, align 4, !tbaa !3
  %.not.i = icmp eq i32 %19, 0
  br i1 %.not.i, label %HUFv06_readDTableX2.exit, label %.lr.ph43.i

.lr.ph43.i:                                       ; preds = %.preheader.i
  %20 = trunc nuw i32 %14 to i8
  %21 = add nuw nsw i8 %20, 1
  %wide.trip.count52.i = zext i32 %19 to i64
  br label %29

.lr.ph.i:                                         ; preds = %.lr.ph.i, %.lr.ph.preheader.i
  %indvars.iv.i = phi i64 [ 1, %.lr.ph.preheader.i ], [ %indvars.iv.next.i, %.lr.ph.i ]
  %.03438.i = phi i32 [ 0, %.lr.ph.preheader.i ], [ %27, %.lr.ph.i ]
  %22 = getelementptr inbounds nuw [17 x i32], ptr %6, i64 0, i64 %indvars.iv.i
  %23 = load i32, ptr %22, align 4, !tbaa !3
  %24 = trunc i64 %indvars.iv.i to i32
  %25 = add i32 %24, -1
  %26 = shl i32 %23, %25
  %27 = add i32 %26, %.03438.i
  store i32 %.03438.i, ptr %22, align 4, !tbaa !3
  %indvars.iv.next.i = add nuw nsw i64 %indvars.iv.i, 1
  %28 = icmp eq i64 %indvars.iv.next.i, %zext
  br i1 %28, label %.preheader.i, label %.lr.ph.i, !llvm.loop !29

29:                                               ; preds = %._crit_edge.i, %.lr.ph43.i
  %indvars.iv49.i = phi i64 [ 0, %.lr.ph43.i ], [ %indvars.iv.next50.i, %._crit_edge.i ]
  %30 = getelementptr inbounds nuw [256 x i8], ptr %5, i64 0, i64 %indvars.iv49.i
  %31 = load i8, ptr %30, align 1, !tbaa !27
  %32 = zext nneg i8 %31 to i32
  %33 = shl nuw i32 1, %32
  %34 = ashr i32 %33, 1
  %35 = trunc i64 %indvars.iv49.i to i8
  %36 = sub i8 %21, %31
  %37 = zext i8 %31 to i64
  %38 = getelementptr inbounds nuw [17 x i32], ptr %6, i64 0, i64 %37
  %39 = load i32, ptr %38, align 4, !tbaa !3
  %40 = add i32 %34, %39
  %41 = icmp ult i32 %39, %40
  br i1 %41, label %.lr.ph41.preheader.i, label %._crit_edge.i

.lr.ph41.preheader.i:                             ; preds = %29
  %42 = zext i32 %39 to i64
  %wide.trip.count.i = zext i32 %40 to i64
  br label %.lr.ph41.i

.lr.ph41.i:                                       ; preds = %.lr.ph41.i, %.lr.ph41.preheader.i
  %indvars.iv45.i = phi i64 [ %42, %.lr.ph41.preheader.i ], [ %indvars.iv.next46.i, %.lr.ph41.i ]
  %43 = getelementptr inbounds nuw %struct.HUFv06_DEltX2, ptr %10, i64 %indvars.iv45.i
  store i8 %35, ptr %43, align 2, !tbaa !27
  %.sroa.4.0..sroa_idx.i = getelementptr inbounds nuw i8, ptr %43, i64 1
  store i8 %36, ptr %.sroa.4.0..sroa_idx.i, align 1, !tbaa !27
  %indvars.iv.next46.i = add nuw nsw i64 %indvars.iv45.i, 1
  %exitcond48.not.i = icmp eq i64 %indvars.iv.next46.i, %wide.trip.count.i
  br i1 %exitcond48.not.i, label %._crit_edge.i, label %.lr.ph41.i, !llvm.loop !30

._crit_edge.i:                                    ; preds = %.lr.ph41.i, %29
  store i32 %40, ptr %38, align 4, !tbaa !3
  %indvars.iv.next50.i = add nuw nsw i64 %indvars.iv49.i, 1
  %exitcond53.not.i = icmp eq i64 %indvars.iv.next50.i, %wide.trip.count52.i
  br i1 %exitcond53.not.i, label %HUFv06_readDTableX2.exit, label %29, !llvm.loop !31

HUFv06_readDTableX2.exit.thread:                  ; preds = %4, %13
  %.0.i.ph = phi i64 [ -44, %13 ], [ %11, %4 ]
  call void @llvm.lifetime.end.p0(i64 4, ptr nonnull %8) #28
  call void @llvm.lifetime.end.p0(i64 4, ptr nonnull %7) #28
  call void @llvm.lifetime.end.p0(i64 68, ptr nonnull %6) #28
  call void @llvm.lifetime.end.p0(i64 256, ptr nonnull %5) #28
  br label %48

HUFv06_readDTableX2.exit:                         ; preds = %._crit_edge.i, %.preheader.i
  call void @llvm.lifetime.end.p0(i64 4, ptr nonnull %8) #28
  call void @llvm.lifetime.end.p0(i64 4, ptr nonnull %7) #28
  call void @llvm.lifetime.end.p0(i64 68, ptr nonnull %6) #28
  call void @llvm.lifetime.end.p0(i64 256, ptr nonnull %5) #28
  %.not17 = icmp ult i64 %11, %3
  br i1 %.not17, label %44, label %48

44:                                               ; preds = %HUFv06_readDTableX2.exit
  %45 = getelementptr inbounds nuw i8, ptr %2, i64 %11
  %46 = sub nuw i64 %3, %11
  %47 = call i64 @HUFv06_decompress1X2_usingDTable(ptr noundef %0, i64 noundef %1, ptr noundef nonnull %45, i64 noundef %46, ptr noundef nonnull %9)
  br label %48

48:                                               ; preds = %HUFv06_readDTableX2.exit.thread, %HUFv06_readDTableX2.exit, %44
  %.0 = phi i64 [ %47, %44 ], [ -72, %HUFv06_readDTableX2.exit ], [ %.0.i.ph, %HUFv06_readDTableX2.exit.thread ]
  call void @llvm.lifetime.end.p0(i64 8194, ptr nonnull %9) #28
  ret i64 %.0
}